target datalayout = "e-m:e-p270:32:32-p271:32:32-p272:64:64-i64:64-i128:128-f80:128-n8:16:32:64-S128"
target triple = "x86_64-pc-linux-gnu"

%struct.timespec = type { i64, i64 }

; Function Attrs: nounwind uwtable
define i64 @H5_now_usec() #0 {
  %1 = alloca i64, align 8
  %2 = alloca %struct.timespec, align 8
  call void @llvm.lifetime.start.p0(i64 8, ptr %1) #8
  call void @llvm.lifetime.start.p0(i64 16, ptr %2) #8
  %3 = call i32 @clock_gettime(i32 noundef 1, ptr noundef %2) #8
  %4 = getelementptr inbounds nuw %struct.timespec, ptr %2, i32 0, i32 0
  %5 = load i64, ptr %4, align 8, !tbaa !14
  %6 = mul i64 %5, 1000000
  %7 = getelementptr inbounds nuw %struct.timespec, ptr %2, i32 0, i32 1
  %8 = load i64, ptr %7, align 8, !tbaa !16
  %9 = udiv i64 %8, 1000
  %10 = add i64 %6, %9
  store i64 %10, ptr %1, align 8, !tbaa !8
  call void @llvm.lifetime.end.p0(i64 16, ptr %2) #8
  %11 = load i64, ptr %1, align 8, !tbaa !8
  call void @llvm.lifetime.end.p0(i64 8, ptr %1) #8
  ret i64 %11
}