; Function Attrs: nounwind uwtable
define i64 @H5_now_usec() local_unnamed_addr #5 {
  %1 = alloca %struct.timespec, align 8
  call void @llvm.lifetime.start.p0(i64 16, ptr nonnull %1) #11
  %2 = call i32 @clock_gettime(i32 noundef 1, ptr noundef nonnull %1) #11
  %3 = load i64, ptr %1, align 8, !tbaa !8
  %4 = mul i64 %3, 1000000
  %5 = getelementptr inbounds nuw i8, ptr %1, i64 8
  %6 = load i64, ptr %5, align 8, !tbaa !10
  %7 = udiv i64 %6, 1000
  %8 = add i64 %7, %4
  call void @llvm.lifetime.end.p0(i64 16, ptr nonnull %1) #11
  ret i64 %8
}